Certificate:
    Data:
        Version: 3 (0x2)
        Serial Number: 1 (0x1)
        Signature Algorithm: sha1WithRSAEncryption
        Issuer: C=DE, ST=Bayern, L=Muenchen, O=TUM, OU=NET, CN=SECURITY/emailAddress=mail@test.test
        Validity
            Not Before: Jan 13 13:56:47 2012 GMT
            Not After : Jan 12 13:56:47 2013 GMT
        Subject: C=DE, ST=Berlin, L=Berlin, O=DKB, OU=SECURITY, CN=banking.dkb.de/emailAddress=mail@dkb.de
        Subject Public Key Info:
            Public Key Algorithm: rsaEncryption
            RSA Public Key: (1024 bit)
                Modulus (1024 bit):
                    00:d9:e4:8c:fe:19:3f:6d:b0:8b:71:b5:69:6b:58:
                    93:97:a6:56:29:1f:85:6c:e5:29:f2:29:14:bb:18:
                    05:23:97:a0:d6:37:dc:12:b5:cf:df:75:f9:75:cd:
                    8c:2f:df:44:6c:48:d8:f2:8c:8b:b3:ed:49:d3:c2:
                    ee:fa:de:7c:b4:d2:a5:00:31:37:22:95:d5:f9:0e:
                    03:3f:e9:09:be:36:64:03:08:b8:97:05:70:08:77:
                    04:a7:80:1a:f4:b2:bd:50:b2:50:13:69:71:2f:16:
                    f6:9b:60:37:29:07:b5:12:9e:1e:c1:b6:88:5c:0e:
                    99:fd:43:39:5c:e8:30:16:1f
                Exponent: 65537 (0x10001)
        X509v3 extensions:
            X509v3 Basic Constraints: 
                CA:FALSE
            Netscape Comment: 
                OpenSSL Generated Certificate
            X509v3 Subject Key Identifier: 
                15:9D:92:05:82:55:D3:5D:8A:99:59:F7:EA:65:B6:55:4D:74:E5:B0
            X509v3 Authority Key Identifier: 
                keyid:2E:1D:92:0F:7C:B2:8D:AE:33:41:40:A0:7B:46:5A:EF:50:9A:53:75
                DirName:/C=DE/ST=Bayern/L=Muenchen/O=TUM/OU=NET/CN=SECURITY/emailAddress=mail@test.test
                serial:BF:7E:41:C5:DE:6F:FC:4E

    Signature Algorithm: sha1WithRSAEncryption
        a0:9e:28:d4:0c:d1:95:a6:a0:37:e5:31:d6:32:21:bc:42:75:
        c8:dd:cb:9b:37:15:4b:b9:fe:e1:4e:5e:ad:7f:68:5f:38:14:
        b5:7b:5b:16:30:7e:64:f7:9e:16:32:77:6f:ba:33:cd:16:ad:
        3f:66:e9:a2:c5:79:37:95:12:2e:1e:af:cd:0f:45:70:43:ee:
        36:49:6f:8d:78:b3:0c:50:eb:27:ef:ae:0a:17:e2:3c:f8:6c:
        95:f3:73:b4:c0:9f:24:76:f2:6d:0c:b7:fe:25:a6:46:fd:42:
        66:94:02:74:05:34:fb:e8:94:b0:15:93:c2:cb:08:3b:ac:9e:
        3e:04
-----BEGIN CERTIFICATE-----
MIIDjzCCAvigAwIBAgIBATANBgkqhkiG9w0BAQUFADB/MQswCQYDVQQGEwJERTEP
MA0GA1UECBMGQmF5ZXJuMREwDwYDVQQHEwhNdWVuY2hlbjEMMAoGA1UEChMDVFVN
MQwwCgYDVQQLEwNORVQxETAPBgNVBAMTCFNFQ1VSSVRZMR0wGwYJKoZIhvcNAQkB
Fg5tYWlsQHRlc3QudGVzdDAeFw0xMjAxMTMxMzU2NDdaFw0xMzAxMTIxMzU2NDda
MIGFMQswCQYDVQQGEwJERTEPMA0GA1UECBMGQmVybGluMQ8wDQYDVQQHEwZCZXJs
aW4xDDAKBgNVBAoTA0RLQjERMA8GA1UECxMIU0VDVVJJVFkxFzAVBgNVBAMTDmJh
bmtpbmcuZGtiLmRlMRowGAYJKoZIhvcNAQkBFgttYWlsQGRrYi5kZTCBnzANBgkq
hkiG9w0BAQEFAAOBjQAwgYkCgYEA2eSM/hk/bbCLcbVpa1iTl6ZWKR+FbOUp8ikU
uxgFI5eg1jfcErXP33X5dc2ML99EbEjY8oyLs+1J08Lu+t58tNKlADE3IpXV+Q4D
P+kJvjZkAwi4lwVwCHcEp4Aa9LK9ULJQE2lxLxb2m2A3KQe1Ep4ewbaIXA6Z/UM5
XOgwFh8CAwEAAaOCARIwggEOMAkGA1UdEwQCMAAwLAYJYIZIAYb4QgENBB8WHU9w
ZW5TU0wgR2VuZXJhdGVkIENlcnRpZmljYXRlMB0GA1UdDgQWBBQVnZIFglXTXYqZ
WffqZbZVTXTlsDCBswYDVR0jBIGrMIGogBQuHZIPfLKNrjNBQKB7RlrvUJpTdaGB
hKSBgTB/MQswCQYDVQQGEwJERTEPMA0GA1UECBMGQmF5ZXJuMREwDwYDVQQHEwhN
dWVuY2hlbjEMMAoGA1UEChMDVFVNMQwwCgYDVQQLEwNORVQxETAPBgNVBAMTCFNF
Q1VSSVRZMR0wGwYJKoZIhvcNAQkBFg5tYWlsQHRlc3QudGVzdIIJAL9+QcXeb/xO
MA0GCSqGSIb3DQEBBQUAA4GBAKCeKNQM0ZWmoDflMdYyIbxCdcjdy5s3FUu5/uFO
Xq1/aF84FLV7WxYwfmT3nhYyd2+6M80WrT9m6aLFeTeVEi4er80PRXBD7jZJb414
swxQ6yfvrgoX4jz4bJXzc7TAnyR28m0Mt/4lpkb9QmaUAnQFNPvolLAVk8LLCDus
nj4E
-----END CERTIFICATE-----
