Certificate:
    Data:
        Version: 3 (0x2)
        Serial Number: 2 (0x2)
        Signature Algorithm: sha1WithRSAEncryption
        Issuer: C=DE, ST=Bayern, L=Muenchen, O=TUM, OU=NET, CN=SECURITY/emailAddress=mail@test.test
        Validity
            Not Before: Jan 13 14:07:30 2012 GMT
            Not After : Jan 12 14:07:30 2013 GMT
        Subject: C=US, ST=California, L=Somewhere, O=Not Reallz PazPal Inc, OU=Internet Department, CN=www.paypal.com/emailAddress=me@domain.com
        Subject Public Key Info:
            Public Key Algorithm: rsaEncryption
            RSA Public Key: (1024 bit)
                Modulus (1024 bit):
                    00:c0:18:f8:80:33:24:4b:b8:51:a9:a8:10:b9:df:
                    77:e0:43:4b:b4:98:c2:c3:48:37:ad:14:b6:f1:cb:
                    ac:4e:0c:08:7b:9c:f1:93:30:59:f4:23:bf:20:0c:
                    d6:56:53:94:ac:e2:66:d0:3d:7b:d4:36:26:61:c3:
                    87:ac:49:2a:c2:1e:7e:e2:73:f1:64:ee:55:57:41:
                    9b:dc:a5:01:62:7d:2f:28:d8:61:65:0f:c8:f3:31:
                    d2:d8:2b:73:38:31:03:a1:35:bc:c7:6a:6f:a3:1b:
                    2b:5f:aa:77:b4:b4:e1:2f:e5:08:30:30:ff:f7:e8:
                    eb:c9:cc:46:78:ad:02:cf:55
                Exponent: 65537 (0x10001)
        X509v3 extensions:
            X509v3 Basic Constraints: 
                CA:FALSE
            Netscape Comment: 
                OpenSSL Generated Certificate
            X509v3 Subject Key Identifier: 
                CC:67:09:50:FD:1A:1C:21:16:B0:E9:EA:6D:0A:21:79:41:AC:26:7D
            X509v3 Authority Key Identifier: 
                keyid:2E:1D:92:0F:7C:B2:8D:AE:33:41:40:A0:7B:46:5A:EF:50:9A:53:75
                DirName:/C=DE/ST=Bayern/L=Muenchen/O=TUM/OU=NET/CN=SECURITY/emailAddress=mail@test.test
                serial:BF:7E:41:C5:DE:6F:FC:4E

    Signature Algorithm: sha1WithRSAEncryption
        41:82:06:1f:26:f5:4b:99:ed:da:96:bf:fd:e8:47:1e:32:33:
        c7:34:aa:eb:2f:8a:cf:9f:a2:a8:3b:c9:ca:a6:84:fb:4f:80:
        84:ea:bd:9a:54:ea:ad:f3:21:67:83:05:fe:d5:46:d3:33:c4:
        ce:d5:7f:75:4a:7e:fc:97:00:69:14:e5:64:80:e7:bd:8f:b0:
        f6:c3:1a:c7:14:5c:d3:c4:da:84:01:c8:3d:73:17:df:a3:24:
        f3:f6:cb:1d:ca:46:6b:9b:99:b9:7d:11:36:3b:0c:4f:e9:99:
        8a:64:66:0d:34:fb:9b:80:db:b9:8a:28:72:18:bd:e4:b8:7d:
        98:b4
-----BEGIN CERTIFICATE-----
MIIDtTCCAx6gAwIBAgIBAjANBgkqhkiG9w0BAQUFADB/MQswCQYDVQQGEwJERTEP
MA0GA1UECBMGQmF5ZXJuMREwDwYDVQQHEwhNdWVuY2hlbjEMMAoGA1UEChMDVFVN
MQwwCgYDVQQLEwNORVQxETAPBgNVBAMTCFNFQ1VSSVRZMR0wGwYJKoZIhvcNAQkB
Fg5tYWlsQHRlc3QudGVzdDAeFw0xMjAxMTMxNDA3MzBaFw0xMzAxMTIxNDA3MzBa
MIGrMQswCQYDVQQGEwJVUzETMBEGA1UECBMKQ2FsaWZvcm5pYTESMBAGA1UEBxMJ
U29tZXdoZXJlMR4wHAYDVQQKExVOb3QgUmVhbGx6IFBhelBhbCBJbmMxHDAaBgNV
BAsTE0ludGVybmV0IERlcGFydG1lbnQxFzAVBgNVBAMTDnd3dy5wYXlwYWwuY29t
MRwwGgYJKoZIhvcNAQkBFg1tZUBkb21haW4uY29tMIGfMA0GCSqGSIb3DQEBAQUA
A4GNADCBiQKBgQDAGPiAMyRLuFGpqBC533fgQ0u0mMLDSDetFLbxy6xODAh7nPGT
MFn0I78gDNZWU5Ss4mbQPXvUNiZhw4esSSrCHn7ic/Fk7lVXQZvcpQFifS8o2GFl
D8jzMdLYK3M4MQOhNbzHam+jGytfqne0tOEv5QgwMP/36OvJzEZ4rQLPVQIDAQAB
o4IBEjCCAQ4wCQYDVR0TBAIwADAsBglghkgBhvhCAQ0EHxYdT3BlblNTTCBHZW5l
cmF0ZWQgQ2VydGlmaWNhdGUwHQYDVR0OBBYEFMxnCVD9GhwhFrDp6m0KIXlBrCZ9
MIGzBgNVHSMEgaswgaiAFC4dkg98so2uM0FAoHtGWu9QmlN1oYGEpIGBMH8xCzAJ
BgNVBAYTAkRFMQ8wDQYDVQQIEwZCYXllcm4xETAPBgNVBAcTCE11ZW5jaGVuMQww
CgYDVQQKEwNUVU0xDDAKBgNVBAsTA05FVDERMA8GA1UEAxMIU0VDVVJJVFkxHTAb
BgkqhkiG9w0BCQEWDm1haWxAdGVzdC50ZXN0ggkAv35Bxd5v/E4wDQYJKoZIhvcN
AQEFBQADgYEAQYIGHyb1S5nt2pa//ehHHjIzxzSq6y+Kz5+iqDvJyqaE+0+AhOq9
mlTqrfMhZ4MF/tVG0zPEztV/dUp+/JcAaRTlZIDnvY+w9sMaxxRc08TahAHIPXMX
36Mk8/bLHcpGa5uZuX0RNjsMT+mZimRmDTT7m4DbuYoochi95Lh9mLQ=
-----END CERTIFICATE-----
