Certificate:
    Data:
        Version: 3 (0x2)
        Serial Number: 3 (0x3)
        Signature Algorithm: sha1WithRSAEncryption
        Issuer: C=DE, ST=Bayern, L=Muenchen, O=TUM, OU=NET, CN=SECURITY/emailAddress=mail@test.test
        Validity
            Not Before: Jan 30 16:26:47 2012 GMT
            Not After : Jan 29 16:26:47 2013 GMT
        Subject: C=DE, ST=Bayern, L=M\xC3\xBCnchen, O=UniCredit Bank AG, OU=UGF1S1, CN=my.hypovereinsbank.de
        Subject Public Key Info:
            Public Key Algorithm: rsaEncryption
                Public-Key: (1024 bit)
                Modulus:
                    00:95:36:44:c7:bf:df:62:4f:1d:36:c2:3e:5d:a9:
                    2c:d0:2c:6b:94:18:cd:3d:22:bc:17:b4:60:2c:21:
                    df:06:e2:17:20:59:a4:40:c3:8a:49:1c:3a:9d:bf:
                    ca:61:9b:32:7f:37:25:03:55:da:34:4e:1e:24:d8:
                    38:ea:f5:a1:a7:77:de:62:71:2d:93:a1:05:a0:07:
                    ae:03:90:07:0b:bc:f1:a8:69:21:24:e9:a0:19:3c:
                    5e:b1:ba:ab:41:6a:f4:e6:af:1a:7a:b5:94:c1:76:
                    91:dd:16:a6:30:33:b6:59:5b:cf:64:b2:88:c8:80:
                    59:d1:ce:7f:84:7e:ec:f7:a3
                Exponent: 65537 (0x10001)
        X509v3 extensions:
            X509v3 Basic Constraints: 
                CA:FALSE
            Netscape Comment: 
                OpenSSL Generated Certificate
            X509v3 Subject Key Identifier: 
                90:C1:3A:C5:6C:C9:C4:F6:D3:B4:FE:42:47:F6:90:9D:B5:D4:D3:CE
            X509v3 Authority Key Identifier: 
                keyid:2E:1D:92:0F:7C:B2:8D:AE:33:41:40:A0:7B:46:5A:EF:50:9A:53:75
                DirName:/C=DE/ST=Bayern/L=Muenchen/O=TUM/OU=NET/CN=SECURITY/emailAddress=mail@test.test
                serial:BF:7E:41:C5:DE:6F:FC:4E

    Signature Algorithm: sha1WithRSAEncryption
        82:be:c6:3f:a9:9f:3a:d8:14:ee:d3:b0:f4:0c:68:77:41:53:
        df:15:f1:3b:81:09:91:54:29:c2:0e:62:66:28:ac:71:8f:aa:
        ca:d6:df:6e:ed:cf:89:a6:b0:4d:5b:39:86:df:6b:c5:00:6b:
        ab:e8:74:ed:b3:8b:a5:b3:12:4e:10:fe:b0:1f:06:88:91:86:
        fb:37:94:f3:4e:69:45:50:fc:ed:3a:fd:df:60:3a:31:e1:b5:
        02:d2:20:cd:ad:2b:9a:e6:64:01:ee:f9:2b:3d:7a:d9:b3:28:
        16:e4:69:c0:b5:04:1f:6a:08:07:8e:cb:f6:2a:f7:21:28:52:
        62:47
-----BEGIN CERTIFICATE-----
MIIDhzCCAvCgAwIBAgIBAzANBgkqhkiG9w0BAQUFADB/MQswCQYDVQQGEwJERTEP
MA0GA1UECBMGQmF5ZXJuMREwDwYDVQQHEwhNdWVuY2hlbjEMMAoGA1UEChMDVFVN
MQwwCgYDVQQLEwNORVQxETAPBgNVBAMTCFNFQ1VSSVRZMR0wGwYJKoZIhvcNAQkB
Fg5tYWlsQHRlc3QudGVzdDAeFw0xMjAxMzAxNjI2NDdaFw0xMzAxMjkxNjI2NDda
MH4xCzAJBgNVBAYTAkRFMQ8wDQYDVQQIEwZCYXllcm4xETAPBgNVBAcUCE3DvG5j
aGVuMRowGAYDVQQKExFVbmlDcmVkaXQgQmFuayBBRzEPMA0GA1UECxMGVUdGMVMx
MR4wHAYDVQQDExVteS5oeXBvdmVyZWluc2JhbmsuZGUwgZ8wDQYJKoZIhvcNAQEB
BQADgY0AMIGJAoGBAJU2RMe/32JPHTbCPl2pLNAsa5QYzT0ivBe0YCwh3wbiFyBZ
pEDDikkcOp2/ymGbMn83JQNV2jROHiTYOOr1oad33mJxLZOhBaAHrgOQBwu88ahp
ISTpoBk8XrG6q0Fq9OavGnq1lMF2kd0WpjAztllbz2SyiMiAWdHOf4R+7PejAgMB
AAGjggESMIIBDjAJBgNVHRMEAjAAMCwGCWCGSAGG+EIBDQQfFh1PcGVuU1NMIEdl
bmVyYXRlZCBDZXJ0aWZpY2F0ZTAdBgNVHQ4EFgQUkME6xWzJxPbTtP5CR/aQnbXU
084wgbMGA1UdIwSBqzCBqIAULh2SD3yyja4zQUCge0Za71CaU3WhgYSkgYEwfzEL
MAkGA1UEBhMCREUxDzANBgNVBAgTBkJheWVybjERMA8GA1UEBxMITXVlbmNoZW4x
DDAKBgNVBAoTA1RVTTEMMAoGA1UECxMDTkVUMREwDwYDVQQDEwhTRUNVUklUWTEd
MBsGCSqGSIb3DQEJARYObWFpbEB0ZXN0LnRlc3SCCQC/fkHF3m/8TjANBgkqhkiG
9w0BAQUFAAOBgQCCvsY/qZ862BTu07D0DGh3QVPfFfE7gQmRVCnCDmJmKKxxj6rK
1t9u7c+JprBNWzmG32vFAGur6HTts4ulsxJOEP6wHwaIkYb7N5TzTmlFUPztOv3f
YDox4bUC0iDNrSua5mQB7vkrPXrZsygW5GnAtQQfaggHjsv2KvchKFJiRw==
-----END CERTIFICATE-----
