Certificate:
    Data:
        Version: 3 (0x2)
        Serial Number: 4 (0x4)
        Signature Algorithm: sha1WithRSAEncryption
        Issuer: C=DE, ST=Bayern, L=Muenchen, O=TUM, OU=NET, CN=SECURITY/emailAddress=mail@test.test
        Validity
            Not Before: Feb 13 09:24:27 2012 GMT
            Not After : Feb 12 09:24:27 2013 GMT
        Subject: C=DE, ST=Bayern, L=M\xC3\xBCnchen, O=LIPARI FAKE, OU=MitM, CN=lipari.net.in.tum.de
        Subject Public Key Info:
            Public Key Algorithm: rsaEncryption
                Public-Key: (1024 bit)
                Modulus:
                    00:a7:19:e8:45:5a:83:7f:bb:60:d0:39:cc:77:24:
                    33:08:11:18:16:84:8a:67:f5:24:28:18:99:18:24:
                    d9:79:f4:96:20:92:9e:4a:1a:21:8e:58:38:27:5a:
                    21:66:99:40:2e:1e:f4:d5:5f:5b:25:14:48:d7:5d:
                    62:85:ab:3a:e8:ec:f6:0b:89:68:d0:30:0e:f2:ee:
                    34:84:fa:69:fd:ee:e8:2c:bf:90:ce:0d:d3:6d:9e:
                    7f:c2:9b:b0:f7:ad:36:c7:38:22:8b:f0:17:87:6b:
                    fc:ce:74:ca:f8:09:04:6e:76:23:cc:8d:d3:1b:fd:
                    42:5c:00:52:b4:fd:ef:f5:cb
                Exponent: 65537 (0x10001)
        X509v3 extensions:
            X509v3 Basic Constraints: 
                CA:FALSE
            Netscape Comment: 
                OpenSSL Generated Certificate
            X509v3 Subject Key Identifier: 
                F0:B2:3A:73:2D:5E:A8:E8:DE:61:3F:07:D5:3A:8B:05:CC:6B:06:18
            X509v3 Authority Key Identifier: 
                keyid:2E:1D:92:0F:7C:B2:8D:AE:33:41:40:A0:7B:46:5A:EF:50:9A:53:75
                DirName:/C=DE/ST=Bayern/L=Muenchen/O=TUM/OU=NET/CN=SECURITY/emailAddress=mail@test.test
                serial:BF:7E:41:C5:DE:6F:FC:4E

    Signature Algorithm: sha1WithRSAEncryption
        6a:ba:f6:49:43:e9:55:01:00:1f:35:5c:76:f1:a3:a8:07:3d:
        39:9b:1c:67:ca:16:79:72:48:27:63:39:75:33:b8:5f:44:5c:
        4a:60:a3:a9:a0:62:5d:ee:eb:c2:47:c3:87:87:66:8d:96:fb:
        2b:a6:43:8b:9a:0c:ca:f9:dc:6a:18:1c:ba:77:f7:e7:23:7e:
        94:0e:8f:cd:65:d5:03:87:78:6c:3d:a4:7f:ef:d6:a0:40:22:
        49:5a:b9:dc:e5:1e:19:8d:6f:bf:ba:e6:03:96:72:31:d1:4d:
        3c:f5:4c:df:36:7f:07:0a:85:59:40:4a:52:a6:0c:3e:02:6f:
        88:2e
-----BEGIN CERTIFICATE-----
MIIDfjCCAuegAwIBAgIBBDANBgkqhkiG9w0BAQUFADB/MQswCQYDVQQGEwJERTEP
MA0GA1UECBMGQmF5ZXJuMREwDwYDVQQHEwhNdWVuY2hlbjEMMAoGA1UEChMDVFVN
MQwwCgYDVQQLEwNORVQxETAPBgNVBAMTCFNFQ1VSSVRZMR0wGwYJKoZIhvcNAQkB
Fg5tYWlsQHRlc3QudGVzdDAeFw0xMjAyMTMwOTI0MjdaFw0xMzAyMTIwOTI0Mjda
MHUxCzAJBgNVBAYTAkRFMQ8wDQYDVQQIEwZCYXllcm4xETAPBgNVBAcUCE3DvG5j
aGVuMRQwEgYDVQQKEwtMSVBBUkkgRkFLRTENMAsGA1UECxMETWl0TTEdMBsGA1UE
AxMUbGlwYXJpLm5ldC5pbi50dW0uZGUwgZ8wDQYJKoZIhvcNAQEBBQADgY0AMIGJ
AoGBAKcZ6EVag3+7YNA5zHckMwgRGBaEimf1JCgYmRgk2Xn0liCSnkoaIY5YOCda
IWaZQC4e9NVfWyUUSNddYoWrOujs9guJaNAwDvLuNIT6af3u6Cy/kM4N022ef8Kb
sPetNsc4IovwF4dr/M50yvgJBG52I8yN0xv9QlwAUrT97/XLAgMBAAGjggESMIIB
DjAJBgNVHRMEAjAAMCwGCWCGSAGG+EIBDQQfFh1PcGVuU1NMIEdlbmVyYXRlZCBD
ZXJ0aWZpY2F0ZTAdBgNVHQ4EFgQU8LI6cy1eqOjeYT8H1TqLBcxrBhgwgbMGA1Ud
IwSBqzCBqIAULh2SD3yyja4zQUCge0Za71CaU3WhgYSkgYEwfzELMAkGA1UEBhMC
REUxDzANBgNVBAgTBkJheWVybjERMA8GA1UEBxMITXVlbmNoZW4xDDAKBgNVBAoT
A1RVTTEMMAoGA1UECxMDTkVUMREwDwYDVQQDEwhTRUNVUklUWTEdMBsGCSqGSIb3
DQEJARYObWFpbEB0ZXN0LnRlc3SCCQC/fkHF3m/8TjANBgkqhkiG9w0BAQUFAAOB
gQBquvZJQ+lVAQAfNVx28aOoBz05mxxnyhZ5ckgnYzl1M7hfRFxKYKOpoGJd7uvC
R8OHh2aNlvsrpkOLmgzK+dxqGBy6d/fnI36UDo/NZdUDh3hsPaR/79agQCJJWrnc
5R4ZjW+/uuYDlnIx0U089UzfNn8HCoVZQEpSpgw+Am+ILg==
-----END CERTIFICATE-----
